target datalayout = "e-m:e-p270:32:32-p271:32:32-p272:64:64-i64:64-i128:128-f80:128-n8:16:32:64-S128"
target triple = "x86_64-pc-linux-gnu"

%struct.paramType = type { i32, ptr, ptr, i32 }
%struct.playparamType = type { i32, ptr, ptr, i32 }
%class.Scheduler = type { [200 x %"struct.Scheduler::handType"], [200 x %"struct.Scheduler::groupType"], i32, i32, %"struct.std::atomic", [6 x [200 x %"struct.Scheduler::listType"]], [200 x %"struct.Scheduler::sortType"], i32, %"class.std::vector.37", %"class.std::vector.37", %"class.std::vector.37", i32, i32, %"class.std::vector.37", %"class.std::vector.42", %class.Timer }
%"struct.Scheduler::handType" = type { i32, i32, [4 x [4 x i32]], i32, i32, i32, i32, i32, i32, i32, i32, i32, i32 }
%"struct.Scheduler::groupType" = type { i32, i32, i32, i32, i32, i32 }
%"struct.std::atomic" = type { %"struct.std::__atomic_base" }
%"struct.std::__atomic_base" = type { i32 }
%"struct.Scheduler::listType" = type { i32, i32, i32 }
%"struct.Scheduler::sortType" = type { i32, i32 }
%"class.std::vector.37" = type { %"struct.std::_Vector_base.38" }
%"struct.std::_Vector_base.38" = type { %"struct.std::_Vector_base<int, std::allocator<int>>::_Vector_impl" }
%"struct.std::_Vector_base<int, std::allocator<int>>::_Vector_impl" = type { %"struct.std::_Vector_base<int, std::allocator<int>>::_Vector_impl_data" }
%"struct.std::_Vector_base<int, std::allocator<int>>::_Vector_impl_data" = type { ptr, ptr, ptr }
%"class.std::vector.42" = type { %"struct.std::_Vector_base.43" }
%"struct.std::_Vector_base.43" = type { %"struct.std::_Vector_base<Timer, std::allocator<Timer>>::_Vector_impl" }
%"struct.std::_Vector_base<Timer, std::allocator<Timer>>::_Vector_impl" = type { %"struct.std::_Vector_base<Timer, std::allocator<Timer>>::_Vector_impl_data" }
%"struct.std::_Vector_base<Timer, std::allocator<Timer>>::_Vector_impl_data" = type { ptr, ptr, ptr }
%class.Timer = type { %"class.std::__cxx11::basic_string", i32, i64, i64, %"class.std::chrono::time_point", i64 }
%"class.std::__cxx11::basic_string" = type { %"struct.std::__cxx11::basic_string<char>::_Alloc_hider", i64, %union.anon }
%"struct.std::__cxx11::basic_string<char>::_Alloc_hider" = type { ptr }
%union.anon = type { i64, [8 x i8] }
%"class.std::chrono::time_point" = type { %"class.std::chrono::duration" }
%"class.std::chrono::duration" = type { i64 }
%struct.deal = type { i32, i32, [3 x i32], [3 x i32], [4 x [4 x i32]] }
%struct.playTraceBin = type { i32, [52 x i32], [52 x i32] }
%struct.solvedPlay = type { i32, [53 x i32] }
%struct.boards = type { i32, [200 x %struct.deal], [200 x i32], [200 x i32], [200 x i32] }
%struct.playTracesBin = type { i32, [200 x %struct.playTraceBin] }
%struct.solvedPlays = type { i32, [200 x %struct.solvedPlay] }
%struct.schedType = type { i32, i32 }

@playparam = global %struct.paramType zeroinitializer, align 8
@traceparam = global %struct.playparamType zeroinitializer, align 8
@scheduler = external global %class.Scheduler, align 8

; Function Attrs: mustprogress uwtable
define void @_Z16PlaySingleCommonii(i32 noundef %0, i32 noundef %1) #4 {
  %3 = alloca i32, align 4
  %4 = alloca i32, align 4
  %5 = alloca %struct.solvedPlay, align 4
  %6 = alloca i32, align 4
  %7 = alloca %struct.deal, align 8
  %8 = alloca %struct.playTraceBin, align 8
  store i32 %0, ptr %3, align 4
  store i32 %1, ptr %4, align 4
  %9 = load ptr, ptr getelementptr inbounds nuw (%struct.paramType, ptr @playparam, i32 0, i32 1), align 8
  %10 = getelementptr inbounds nuw %struct.boards, ptr %9, i32 0, i32 1
  %11 = load i32, ptr %4, align 4
  %12 = sext i32 %11 to i64
  %13 = getelementptr inbounds [200 x %struct.deal], ptr %10, i64 0, i64 %12
  call void @llvm.memcpy.p0.p0.i64(ptr align 4 %7, ptr align 4 %13, i64 96, i1 false)
  %14 = load ptr, ptr getelementptr inbounds nuw (%struct.playparamType, ptr @traceparam, i32 0, i32 1), align 8
  %15 = getelementptr inbounds nuw %struct.playTracesBin, ptr %14, i32 0, i32 1
  %16 = load i32, ptr %4, align 4
  %17 = sext i32 %16 to i64
  %18 = getelementptr inbounds [200 x %struct.playTraceBin], ptr %15, i64 0, i64 %17
  call void @llvm.memcpy.p0.p0.i64(ptr align 4 %8, ptr align 4 %18, i64 420, i1 false)
  %19 = load i32, ptr %3, align 4
  %20 = call i32 @AnalysePlayBin(ptr noundef byval(%struct.deal) align 8 %7, ptr noundef byval(%struct.playTraceBin) align 8 %8, ptr noundef %5, i32 noundef %19)
  store i32 %20, ptr %6, align 4
  %21 = load i32, ptr %6, align 4
  %22 = icmp eq i32 %21, 1
  br i1 %22, label %23, label %29

23:                                               ; preds = %2
  %24 = load ptr, ptr getelementptr inbounds nuw (%struct.playparamType, ptr @traceparam, i32 0, i32 2), align 8
  %25 = getelementptr inbounds nuw %struct.solvedPlays, ptr %24, i32 0, i32 1
  %26 = load i32, ptr %4, align 4
  %27 = sext i32 %26 to i64
  %28 = getelementptr inbounds [200 x %struct.solvedPlay], ptr %25, i64 0, i64 %27
  call void @llvm.memcpy.p0.p0.i64(ptr align 4 %28, ptr align 4 %5, i64 216, i1 false)
  br label %31

29:                                               ; preds = %2
  %30 = load i32, ptr %6, align 4
  store i32 %30, ptr getelementptr inbounds nuw (%struct.paramType, ptr @playparam, i32 0, i32 3), align 8
  br label %31

31:                                               ; preds = %29, %23
  ret void
}

; Function Attrs: mustprogress uwtable
define void @_Z15PlayChunkCommoni(i32 noundef %0) #4 {
  %2 = alloca i32, align 4
  %3 = alloca i32, align 4
  %4 = alloca %struct.schedType, align 4
  %5 = alloca %struct.schedType, align 4
  store i32 %0, ptr %2, align 4
  br label %6

6:                                                ; preds = %14, %1
  %7 = load i32, ptr %2, align 4
  %8 = call i64 @_ZN9Scheduler9GetNumberEi(ptr noundef nonnull align 8 dereferenceable(43416) @scheduler, i32 noundef %7)
  store i64 %8, ptr %5, align 4
  call void @llvm.memcpy.p0.p0.i64(ptr align 4 %4, ptr align 4 %5, i64 8, i1 false)
  %9 = getelementptr inbounds nuw %struct.schedType, ptr %4, i32 0, i32 0
  %10 = load i32, ptr %9, align 4
  store i32 %10, ptr %3, align 4
  %11 = load i32, ptr %3, align 4
  %12 = icmp eq i32 %11, -1
  br i1 %12, label %13, label %14

13:                                               ; preds = %6
  br label %17

14:                                               ; preds = %6
  %15 = load i32, ptr %2, align 4
  %16 = load i32, ptr %3, align 4
  call void @_Z16PlaySingleCommonii(i32 noundef %15, i32 noundef %16)
  br label %6, !llvm.loop !8

17:                                               ; preds = %13
  ret void
}